target datalayout = "e-m:e-p270:32:32-p271:32:32-p272:64:64-i64:64-i128:128-f80:128-n8:16:32:64-S128"
target triple = "x86_64-pc-linux-gnu"

%struct.s_MergeState = type { i64, i64, ptr, %struct.sortslice, i64, i32, [64 x %struct.s_slice], [256 x ptr], ptr, ptr, ptr }
%struct.sortslice = type { ptr, ptr }
%struct.s_slice = type { %struct.sortslice, i64, i32 }

; Function Attrs: nounwind uwtable
define internal i64 @gallop_left(ptr noundef %0, ptr noundef %1, ptr noundef %2, i64 noundef %3, i64 noundef %4) #0 {
  %6 = alloca i64, align 8
  %7 = alloca ptr, align 8
  %8 = alloca ptr, align 8
  %9 = alloca ptr, align 8
  %10 = alloca i64, align 8
  %11 = alloca i64, align 8
  %12 = alloca i64, align 8
  %13 = alloca i64, align 8
  %14 = alloca i64, align 8
  %15 = alloca i64, align 8
  %16 = alloca i32, align 4
  %17 = alloca i64, align 8
  %18 = alloca i64, align 8
  store ptr %0, ptr %7, align 8, !tbaa !183
  store ptr %1, ptr %8, align 8, !tbaa !36
  store ptr %2, ptr %9, align 8, !tbaa !119
  store i64 %3, ptr %10, align 8, !tbaa !26
  store i64 %4, ptr %11, align 8, !tbaa !26
  call void @llvm.lifetime.start.p0(i64 8, ptr %12) #8
  call void @llvm.lifetime.start.p0(i64 8, ptr %13) #8
  call void @llvm.lifetime.start.p0(i64 8, ptr %14) #8
  %19 = load i64, ptr %11, align 8, !tbaa !26
  %20 = load ptr, ptr %9, align 8, !tbaa !119
  %21 = getelementptr ptr, ptr %20, i64 %19
  store ptr %21, ptr %9, align 8, !tbaa !119
  store i64 0, ptr %13, align 8, !tbaa !26
  store i64 1, ptr %12, align 8, !tbaa !26
  %22 = load ptr, ptr %7, align 8, !tbaa !183
  %23 = getelementptr inbounds nuw %struct.s_MergeState, ptr %22, i32 0, i32 8
  %24 = load ptr, ptr %23, align 8, !tbaa !131
  %25 = load ptr, ptr %9, align 8, !tbaa !119
  %26 = load ptr, ptr %25, align 8, !tbaa !36
  %27 = load ptr, ptr %8, align 8, !tbaa !36
  %28 = load ptr, ptr %7, align 8, !tbaa !183
  %29 = call i32 %24(ptr noundef %26, ptr noundef %27, ptr noundef %28)
  %30 = sext i32 %29 to i64
  store i64 %30, ptr %14, align 8, !tbaa !26
  %31 = icmp slt i64 %30, 0
  br i1 %31, label %32, label %33

32:                                               ; preds = %5
  br label %177

33:                                               ; preds = %5
  %34 = load i64, ptr %14, align 8, !tbaa !26
  %35 = icmp ne i64 %34, 0
  br i1 %35, label %36, label %84

36:                                               ; preds = %33
  call void @llvm.lifetime.start.p0(i64 8, ptr %15) #8
  %37 = load i64, ptr %10, align 8, !tbaa !26
  %38 = load i64, ptr %11, align 8, !tbaa !26
  %39 = sub i64 %37, %38
  store i64 %39, ptr %15, align 8, !tbaa !26
  br label %40

40:                                               ; preds = %67, %36
  %41 = load i64, ptr %12, align 8, !tbaa !26
  %42 = load i64, ptr %15, align 8, !tbaa !26
  %43 = icmp slt i64 %41, %42
  br i1 %43, label %44, label %68

44:                                               ; preds = %40
  %45 = load ptr, ptr %7, align 8, !tbaa !183
  %46 = getelementptr inbounds nuw %struct.s_MergeState, ptr %45, i32 0, i32 8
  %47 = load ptr, ptr %46, align 8, !tbaa !131
  %48 = load ptr, ptr %9, align 8, !tbaa !119
  %49 = load i64, ptr %12, align 8, !tbaa !26
  %50 = getelementptr ptr, ptr %48, i64 %49
  %51 = load ptr, ptr %50, align 8, !tbaa !36
  %52 = load ptr, ptr %8, align 8, !tbaa !36
  %53 = load ptr, ptr %7, align 8, !tbaa !183
  %54 = call i32 %47(ptr noundef %51, ptr noundef %52, ptr noundef %53)
  %55 = sext i32 %54 to i64
  store i64 %55, ptr %14, align 8, !tbaa !26
  %56 = icmp slt i64 %55, 0
  br i1 %56, label %57, label %58

57:                                               ; preds = %44
  store i32 2, ptr %16, align 4
  br label %81

58:                                               ; preds = %44
  %59 = load i64, ptr %14, align 8, !tbaa !26
  %60 = icmp ne i64 %59, 0
  br i1 %60, label %61, label %66

61:                                               ; preds = %58
  %62 = load i64, ptr %12, align 8, !tbaa !26
  store i64 %62, ptr %13, align 8, !tbaa !26
  %63 = load i64, ptr %12, align 8, !tbaa !26
  %64 = shl i64 %63, 1
  %65 = add i64 %64, 1
  store i64 %65, ptr %12, align 8, !tbaa !26
  br label %67

66:                                               ; preds = %58
  br label %68

67:                                               ; preds = %61
  br label %40, !llvm.loop !216

68:                                               ; preds = %66, %40
  %69 = load i64, ptr %12, align 8, !tbaa !26
  %70 = load i64, ptr %15, align 8, !tbaa !26
  %71 = icmp sgt i64 %69, %70
  br i1 %71, label %72, label %74

72:                                               ; preds = %68
  %73 = load i64, ptr %15, align 8, !tbaa !26
  store i64 %73, ptr %12, align 8, !tbaa !26
  br label %74

74:                                               ; preds = %72, %68
  %75 = load i64, ptr %11, align 8, !tbaa !26
  %76 = load i64, ptr %13, align 8, !tbaa !26
  %77 = add i64 %76, %75
  store i64 %77, ptr %13, align 8, !tbaa !26
  %78 = load i64, ptr %11, align 8, !tbaa !26
  %79 = load i64, ptr %12, align 8, !tbaa !26
  %80 = add i64 %79, %78
  store i64 %80, ptr %12, align 8, !tbaa !26
  store i32 0, ptr %16, align 4
  br label %81

81:                                               ; preds = %57, %74
  call void @llvm.lifetime.end.p0(i64 8, ptr %15) #8
  %82 = load i32, ptr %16, align 4
  switch i32 %82, label %178 [
    i32 0, label %83
    i32 2, label %177
  ]

83:                                               ; preds = %81
  br label %132

84:                                               ; preds = %33
  call void @llvm.lifetime.start.p0(i64 8, ptr %17) #8
  %85 = load i64, ptr %11, align 8, !tbaa !26
  %86 = add i64 %85, 1
  store i64 %86, ptr %17, align 8, !tbaa !26
  br label %87

87:                                               ; preds = %110, %84
  %88 = load i64, ptr %12, align 8, !tbaa !26
  %89 = load i64, ptr %17, align 8, !tbaa !26
  %90 = icmp slt i64 %88, %89
  br i1 %90, label %91, label %115

91:                                               ; preds = %87
  %92 = load ptr, ptr %7, align 8, !tbaa !183
  %93 = getelementptr inbounds nuw %struct.s_MergeState, ptr %92, i32 0, i32 8
  %94 = load ptr, ptr %93, align 8, !tbaa !131
  %95 = load ptr, ptr %9, align 8, !tbaa !119
  %96 = load i64, ptr %12, align 8, !tbaa !26
  %97 = sub i64 0, %96
  %98 = getelementptr ptr, ptr %95, i64 %97
  %99 = load ptr, ptr %98, align 8, !tbaa !36
  %100 = load ptr, ptr %8, align 8, !tbaa !36
  %101 = load ptr, ptr %7, align 8, !tbaa !183
  %102 = call i32 %94(ptr noundef %99, ptr noundef %100, ptr noundef %101)
  %103 = sext i32 %102 to i64
  store i64 %103, ptr %14, align 8, !tbaa !26
  %104 = icmp slt i64 %103, 0
  br i1 %104, label %105, label %106

105:                                              ; preds = %91
  store i32 2, ptr %16, align 4
  br label %129

106:                                              ; preds = %91
  %107 = load i64, ptr %14, align 8, !tbaa !26
  %108 = icmp ne i64 %107, 0
  br i1 %108, label %109, label %110

109:                                              ; preds = %106
  br label %115

110:                                              ; preds = %106
  %111 = load i64, ptr %12, align 8, !tbaa !26
  store i64 %111, ptr %13, align 8, !tbaa !26
  %112 = load i64, ptr %12, align 8, !tbaa !26
  %113 = shl i64 %112, 1
  %114 = add i64 %113, 1
  store i64 %114, ptr %12, align 8, !tbaa !26
  br label %87, !llvm.loop !217

115:                                              ; preds = %109, %87
  %116 = load i64, ptr %12, align 8, !tbaa !26
  %117 = load i64, ptr %17, align 8, !tbaa !26
  %118 = icmp sgt i64 %116, %117
  br i1 %118, label %119, label %121

119:                                              ; preds = %115
  %120 = load i64, ptr %17, align 8, !tbaa !26
  store i64 %120, ptr %12, align 8, !tbaa !26
  br label %121

121:                                              ; preds = %119, %115
  %122 = load i64, ptr %13, align 8, !tbaa !26
  store i64 %122, ptr %14, align 8, !tbaa !26
  %123 = load i64, ptr %11, align 8, !tbaa !26
  %124 = load i64, ptr %12, align 8, !tbaa !26
  %125 = sub i64 %123, %124
  store i64 %125, ptr %13, align 8, !tbaa !26
  %126 = load i64, ptr %11, align 8, !tbaa !26
  %127 = load i64, ptr %14, align 8, !tbaa !26
  %128 = sub i64 %126, %127
  store i64 %128, ptr %12, align 8, !tbaa !26
  store i32 0, ptr %16, align 4
  br label %129

129:                                              ; preds = %105, %121
  call void @llvm.lifetime.end.p0(i64 8, ptr %17) #8
  %130 = load i32, ptr %16, align 4
  switch i32 %130, label %178 [
    i32 0, label %131
    i32 2, label %177
  ]

131:                                              ; preds = %129
  br label %132

132:                                              ; preds = %131, %83
  %133 = load i64, ptr %11, align 8, !tbaa !26
  %134 = load ptr, ptr %9, align 8, !tbaa !119
  %135 = sub i64 0, %133
  %136 = getelementptr ptr, ptr %134, i64 %135
  store ptr %136, ptr %9, align 8, !tbaa !119
  %137 = load i64, ptr %13, align 8, !tbaa !26
  %138 = add i64 %137, 1
  store i64 %138, ptr %13, align 8, !tbaa !26
  br label %139

139:                                              ; preds = %174, %132
  %140 = load i64, ptr %13, align 8, !tbaa !26
  %141 = load i64, ptr %12, align 8, !tbaa !26
  %142 = icmp slt i64 %140, %141
  br i1 %142, label %143, label %175

143:                                              ; preds = %139
  call void @llvm.lifetime.start.p0(i64 8, ptr %18) #8
  %144 = load i64, ptr %13, align 8, !tbaa !26
  %145 = load i64, ptr %12, align 8, !tbaa !26
  %146 = load i64, ptr %13, align 8, !tbaa !26
  %147 = sub i64 %145, %146
  %148 = ashr i64 %147, 1
  %149 = add i64 %144, %148
  store i64 %149, ptr %18, align 8, !tbaa !26
  %150 = load ptr, ptr %7, align 8, !tbaa !183
  %151 = getelementptr inbounds nuw %struct.s_MergeState, ptr %150, i32 0, i32 8
  %152 = load ptr, ptr %151, align 8, !tbaa !131
  %153 = load ptr, ptr %9, align 8, !tbaa !119
  %154 = load i64, ptr %18, align 8, !tbaa !26
  %155 = getelementptr ptr, ptr %153, i64 %154
  %156 = load ptr, ptr %155, align 8, !tbaa !36
  %157 = load ptr, ptr %8, align 8, !tbaa !36
  %158 = load ptr, ptr %7, align 8, !tbaa !183
  %159 = call i32 %152(ptr noundef %156, ptr noundef %157, ptr noundef %158)
  %160 = sext i32 %159 to i64
  store i64 %160, ptr %14, align 8, !tbaa !26
  %161 = icmp slt i64 %160, 0
  br i1 %161, label %162, label %163

162:                                              ; preds = %143
  store i32 2, ptr %16, align 4
  br label %172

163:                                              ; preds = %143
  %164 = load i64, ptr %14, align 8, !tbaa !26
  %165 = icmp ne i64 %164, 0
  br i1 %165, label %166, label %169

166:                                              ; preds = %163
  %167 = load i64, ptr %18, align 8, !tbaa !26
  %168 = add i64 %167, 1
  store i64 %168, ptr %13, align 8, !tbaa !26
  br label %171

169:                                              ; preds = %163
  %170 = load i64, ptr %18, align 8, !tbaa !26
  store i64 %170, ptr %12, align 8, !tbaa !26
  br label %171

171:                                              ; preds = %169, %166
  store i32 0, ptr %16, align 4
  br label %172

172:                                              ; preds = %162, %171
  call void @llvm.lifetime.end.p0(i64 8, ptr %18) #8
  %173 = load i32, ptr %16, align 4
  switch i32 %173, label %178 [
    i32 0, label %174
    i32 2, label %177
  ]

174:                                              ; preds = %172
  br label %139, !llvm.loop !218

175:                                              ; preds = %139
  %176 = load i64, ptr %12, align 8, !tbaa !26
  store i64 %176, ptr %6, align 8
  store i32 1, ptr %16, align 4
  br label %178

177:                                              ; preds = %172, %129, %81, %32
  store i64 -1, ptr %6, align 8
  store i32 1, ptr %16, align 4
  br label %178

178:                                              ; preds = %177, %175, %172, %129, %81
  call void @llvm.lifetime.end.p0(i64 8, ptr %14) #8
  call void @llvm.lifetime.end.p0(i64 8, ptr %13) #8
  call void @llvm.lifetime.end.p0(i64 8, ptr %12) #8
  %179 = load i64, ptr %6, align 8
  ret i64 %179
}