; Function Attrs: nounwind uwtable
define internal fastcc i64 @gallop_left(ptr noundef nonnull %0, ptr noundef %1, ptr noundef readonly captures(none) %2, i64 noundef %3, i64 noundef %4) unnamed_addr #0 {
  %6 = getelementptr ptr, ptr %2, i64 %4
  %7 = getelementptr inbounds nuw i8, ptr %0, i64 4152
  %8 = load ptr, ptr %7, align 8, !tbaa !129
  %9 = load ptr, ptr %6, align 8, !tbaa !112
  %10 = tail call i32 %8(ptr noundef %9, ptr noundef %1, ptr noundef nonnull %0) #12
  %11 = icmp slt i32 %10, 0
  br i1 %11, label %.loopexit, label %12

12:                                               ; preds = %5
  %.not = icmp eq i32 %10, 0
  br i1 %.not, label %28, label %13

13:                                               ; preds = %12
  %14 = sub i64 %3, %4
  %15 = icmp sgt i64 %14, 1
  br i1 %15, label %.lr.ph, label %.thread

.lr.ph:                                           ; preds = %13, %22
  %.066110 = phi i64 [ %24, %22 ], [ 1, %13 ]
  %.069109 = phi i64 [ %.066110, %22 ], [ 0, %13 ]
  %16 = load ptr, ptr %7, align 8, !tbaa !129
  %17 = getelementptr ptr, ptr %6, i64 %.066110
  %18 = load ptr, ptr %17, align 8, !tbaa !112
  %19 = tail call i32 %16(ptr noundef %18, ptr noundef %1, ptr noundef nonnull %0) #12
  %20 = icmp slt i32 %19, 0
  br i1 %20, label %.loopexit, label %21

21:                                               ; preds = %.lr.ph
  %.not84 = icmp eq i32 %19, 0
  br i1 %.not84, label %.thread, label %22

22:                                               ; preds = %21
  %23 = shl i64 %.066110, 1
  %24 = or disjoint i64 %23, 1
  %25 = icmp slt i64 %24, %14
  br i1 %25, label %.lr.ph, label %.thread, !llvm.loop !197

.thread:                                          ; preds = %21, %22, %13
  %.069.lcssa = phi i64 [ 0, %13 ], [ %.066110, %22 ], [ %.069109, %21 ]
  %.066.lcssa = phi i64 [ 1, %13 ], [ %24, %22 ], [ %.066110, %21 ]
  %spec.select = tail call i64 @llvm.smin.i64(i64 %.066.lcssa, i64 %14)
  %26 = add i64 %.069.lcssa, %4
  %27 = add i64 %spec.select, %4
  br label %44

28:                                               ; preds = %12
  %29 = add i64 %4, 1
  %30 = icmp sgt i64 %29, 1
  br i1 %30, label %.lr.ph117, label %.thread98

.lr.ph117:                                        ; preds = %28, %38
  %.4116 = phi i64 [ %40, %38 ], [ 1, %28 ]
  %.372115 = phi i64 [ %.4116, %38 ], [ 0, %28 ]
  %31 = load ptr, ptr %7, align 8, !tbaa !129
  %32 = sub nsw i64 0, %.4116
  %33 = getelementptr ptr, ptr %6, i64 %32
  %34 = load ptr, ptr %33, align 8, !tbaa !112
  %35 = tail call i32 %31(ptr noundef %34, ptr noundef %1, ptr noundef nonnull %0) #12
  %36 = icmp slt i32 %35, 0
  br i1 %36, label %.loopexit, label %37

37:                                               ; preds = %.lr.ph117
  %.not83 = icmp eq i32 %35, 0
  br i1 %.not83, label %38, label %.thread98

38:                                               ; preds = %37
  %39 = shl i64 %.4116, 1
  %40 = or disjoint i64 %39, 1
  %41 = icmp slt i64 %40, %29
  br i1 %41, label %.lr.ph117, label %.thread98, !llvm.loop !201

.thread98:                                        ; preds = %37, %38, %28
  %.372.lcssa = phi i64 [ 0, %28 ], [ %.4116, %38 ], [ %.372115, %37 ]
  %.4.lcssa = phi i64 [ 1, %28 ], [ %40, %38 ], [ %.4116, %37 ]
  %spec.select87 = tail call i64 @llvm.smin.i64(i64 %.4.lcssa, i64 %29)
  %42 = sub i64 %4, %spec.select87
  %43 = sub i64 %4, %.372.lcssa
  br label %44

44:                                               ; preds = %.thread98, %.thread
  %.271 = phi i64 [ %26, %.thread ], [ %42, %.thread98 ]
  %.3 = phi i64 [ %27, %.thread ], [ %43, %.thread98 ]
  %45 = add i64 %.271, 1
  br label %46

46:                                               ; preds = %48, %44
  %.574 = phi i64 [ %45, %44 ], [ %.675, %48 ]
  %.7 = phi i64 [ %.3, %44 ], [ %.8, %48 ]
  %47 = icmp slt i64 %.574, %.7
  br i1 %47, label %48, label %.loopexit

48:                                               ; preds = %46
  %49 = sub i64 %.7, %.574
  %50 = ashr i64 %49, 1
  %51 = add i64 %50, %.574
  %52 = load ptr, ptr %7, align 8, !tbaa !129
  %53 = getelementptr ptr, ptr %2, i64 %51
  %54 = load ptr, ptr %53, align 8, !tbaa !112
  %55 = tail call i32 %52(ptr noundef %54, ptr noundef %1, ptr noundef nonnull %0) #12
  %56 = icmp slt i32 %55, 0
  %.not85 = icmp eq i32 %55, 0
  %57 = add i64 %51, 1
  %.9 = select i1 %.not85, i64 %51, i64 %.7
  %58 = icmp slt i32 %55, 1
  %.675 = select i1 %58, i64 %.574, i64 %57
  %.8 = select i1 %56, i64 %.7, i64 %.9
  %switch92 = icmp sgt i32 %55, -1
  br i1 %switch92, label %46, label %.loopexit

.loopexit:                                        ; preds = %.lr.ph, %.lr.ph117, %48, %46, %5
  %.0 = phi i64 [ -1, %5 ], [ -1, %48 ], [ %.7, %46 ], [ -1, %.lr.ph117 ], [ -1, %.lr.ph ]
  ret i64 %.0
}